(dp0
S'ChrPose'
p1
L-274312558L
sS'ChrDistance'
p2
I-432504586
sS'BgSub'
p3
L-5037327355L
sS'Graph'
p4
L17770165158L
sS'BgWeather'
p5
L1096359674L
sS'ChrName'
p6
L4061040263L
sS'BgMain'
p7
L-3640816803L
sS'ChrWindow'
p8
I-1205724163
sS'ChrClothes'
p9
L-8860344891L
sS'ChrFace'
p10
L19652438478L
sS'ChrPosition'
p11
L-8685800192L
s.