(dp0
S'ChrPose'
p1
I178719835
sS'BgSub'
p2
I-1060885590
sS'ChrFace'
p3
L-10447730414L
sS'BgWeather'
p4
L-3960256971L
sS'ChrName'
p5
L8216720905L
sS'BgMain'
p6
I-1794817082
sS'ChrClothes'
p7
I1274502611
sS'ChrPosition'
p8
L-6811924966L
s.