(dp0
S'ChrPose'
p1
I178719835
sS'BgSub'
p2
I-1416067622
sS'ChrFace'
p3
L-10447730414L
sS'BgWeather'
p4
L-664359603L
sS'ChrName'
p5
L5890510482L
sS'BgMain'
p6
L-2173002265L
sS'ChrClothes'
p7
I1274502611
sS'ChrPosition'
p8
L-6811924966L
s.