(dp0
S'ChrPose'
p1
L-274312558L
sS'ChrPosition'
p2
L-8685800192L
sS'BgSub'
p3
L-6845162682L
sS'Graph'
p4
L15568732655L
sS'BgWeather'
p5
L-229390818L
sS'ChrName'
p6
L4061040263L
sS'BgMain'
p7
L-2254490617L
sS'ChrWindow'
p8
I-1205724163
sS'ChrClothes'
p9
L-8860344891L
sS'ChrFace'
p10
L19652438478L
sS'ChrDistance'
p11
I-432504586
s.