(dp0
S'ChrPose'
p1
L-274312558L
sS'ChrPosition'
p2
L4589175380L
sS'KeyWord'
p3
L6355019300L
sS'BgSub'
p4
L2302524204L
sS'Graph'
p5
L19025746280L
sS'Cg'
p6
L2432569851L
sS'BgWeather'
p7
L3547484083L
sS'ChrDistance'
p8
L4001207737L
sS'BgMain'
p9
L-2632677954L
sS'ChrWindow'
p10
I-1205724163
sS'ChrClothes'
p11
L-8120891177L
sS'ChrFace'
p12
L21156523325L
sS'ChrName'
p13
L2476096885L
s.