(dp0
S'ChrPose'
p1
L-274312558L
sS'BgSub'
p2
L-5616380954L
sS'Graph'
p3
L19025746280L
sS'Cg'
p4
L2432569851L
sS'BgWeather'
p5
L1557079902L
sS'ChrDistance'
p6
I-432504586
sS'BgMain'
p7
L-2632677954L
sS'ChrWindow'
p8
I-1205724163
sS'ChrName'
p9
L1960604959L
sS'ChrClothes'
p10
L-8860344891L
sS'ChrFace'
p11
L21156523325L
sS'ChrPosition'
p12
L2751631017L
s.