(dp0
S'ChrPose'
p1
I178719835
sS'BgSub'
p2
I-1416067622
sS'ChrFace'
p3
L-10447730414L
sS'BgWeather'
p4
L3084141742L
sS'ChrName'
p5
L3483689438L
sS'BgMain'
p6
L-2784697467L
sS'ChrWindow'
p7
I1726982375
sS'ChrClothes'
p8
I1274502611
sS'ChrPosition'
p9
L-6811924966L
s.