(dp0
S'ChrPose'
p1
L14336326884L
sS'ChrDistance'
p2
L-4079454090L
sS'BgSub'
p3
I-354512602
sS'ChrFace'
p4
L3865737312L
sS'BgWeather'
p5
L2409110407L
sS'ChrName'
p6
L5793418356L
sS'BgMain'
p7
L-4591969906L
sS'ChrWindow'
p8
I1726982375
sS'ChrClothes'
p9
L13969946612L
sS'ChrPosition'
p10
L-8685800192L
s.