(dp0
S'ChrPose'
p1
L-274312558L
sS'ChrPosition'
p2
L2751631017L
sS'BgSub'
p3
L-5616380954L
sS'Graph'
p4
L19025746280L
sS'Cg'
p5
L2432569851L
sS'BgWeather'
p6
L1557079902L
sS'ChrDistance'
p7
I-432504586
sS'BgMain'
p8
L-2632677954L
sS'ChrWindow'
p9
I-1205724163
sS'ChrClothes'
p10
L-8860344891L
sS'ChrFace'
p11
L21156523325L
sS'ChrName'
p12
L1960604959L
s.