(dp0
S'ChrPose'
p1
L-274312558L
sS'ChrDistance'
p2
I-432504586
sS'BgSub'
p3
L-7654153700L
sS'Graph'
p4
L15049364088L
sS'BgWeather'
p5
L552654236L
sS'ChrName'
p6
L2432538269L
sS'BgMain'
p7
L-2254490617L
sS'ChrWindow'
p8
I-1205724163
sS'ChrClothes'
p9
L-8860344891L
sS'ChrFace'
p10
L21156523325L
sS'ChrPosition'
p11
L-9139904457L
s.