(dp0
S'ChrPose'
p1
L1750222211L
sS'ChrDistance'
p2
I-432504586
sS'BgSub'
p3
I-354512602
sS'ChrFace'
p4
L-596868178L
sS'BgWeather'
p5
L2409110407L
sS'ChrName'
p6
L1984103363L
sS'BgMain'
p7
L-4591969906L
sS'ChrWindow'
p8
I1726982375
sS'ChrClothes'
p9
L-864991500L
sS'ChrPosition'
p10
L-8685800192L
s.