(dp0
S'ChrPose'
p1
L2513853914L
sS'BgSub'
p2
L4722199255L
sS'ChrFace'
p3
L3431426200L
sS'BgWeather'
p4
I1822827874
sS'ChrName'
p5
L5048101802L
sS'BgMain'
p6
L1201049923L
sS'ChrClothes'
p7
L3570177249L
sS'ChrPosition'
p8
L-6811924966L
s.