(dp0
S'ChrPose'
p1
L-274312558L
sS'KeyWord'
p2
L6355019300L
sS'BgSub'
p3
L2302524204L
sS'Graph'
p4
L19025746280L
sS'Cg'
p5
L2432569851L
sS'BgWeather'
p6
L3547484083L
sS'ChrDistance'
p7
L4001207737L
sS'BgMain'
p8
L-2632677954L
sS'ChrWindow'
p9
I-1205724163
sS'ChrName'
p10
L2476096885L
sS'ChrClothes'
p11
L-8860344891L
sS'ChrFace'
p12
L21156523325L
sS'ChrPosition'
p13
L4611835810L
s.