(dp0
S'ChrPose'
p1
L4976516119L
sS'ChrPosition'
p2
L-8685800192L
sS'BgSub'
p3
I-354512602
sS'ChrFace'
p4
L2375804643L
sS'BgWeather'
p5
L2409110407L
sS'ChrName'
p6
L2715936095L
sS'BgMain'
p7
L-4591969906L
sS'ChrWindow'
p8
I1726982375
sS'ChrClothes'
p9
L-858963568L
sS'ChrDistance'
p10
I-432504586
s.